target datalayout = "e-m:e-p270:32:32-p271:32:32-p272:64:64-i64:64-i128:128-f80:128-n8:16:32:64-S128"
target triple = "x86_64-pc-linux-gnu"

%struct._zend_executor_globals = type { %struct._zval_struct, %struct._zval_struct, [32 x ptr], ptr, ptr, %struct._zend_array, %struct._zend_array, ptr, i32, i32, ptr, ptr, ptr, ptr, ptr, ptr, i64, ptr, ptr, i32, i32, i64, i32, i32, i32, i8, i8, %struct.zend_atomic_bool_s, %struct.zend_atomic_bool_s, ptr, i64, ptr, ptr, %struct._zend_array, %struct._zend_array, i32, i8, %struct._zval_struct, %struct._zval_struct, %struct._zend_stack, %struct._zend_stack, %struct._zend_stack, ptr, i32, i32, i64, ptr, ptr, ptr, %struct._zend_objects_store, ptr, ptr, ptr, [3 x %struct._zend_op], ptr, i8, i8, i64, i32, i32, ptr, [16 x %struct._HashTableIterator], ptr, %union._zend_function, %struct._zend_op, %struct._zend_array, i64, %struct.zend_get_gc_buffer, ptr, ptr, ptr, i64, i8, i32, ptr, ptr, i64, %struct._zend_call_stack, i64, i64, [6 x ptr] }
%struct.zend_atomic_bool_s = type { i8 }
%struct._zval_struct = type { %union._zend_value, %union.anon, %union.anon.2 }
%union._zend_value = type { i64 }
%union.anon = type { i32 }
%union.anon.2 = type { i32 }
%struct._zend_stack = type { i32, i32, i32, ptr }
%struct._zend_objects_store = type { ptr, i32, i32, i32 }
%struct._HashTableIterator = type { ptr, i32, i32 }
%union._zend_function = type { %struct._zend_op_array }
%struct._zend_op_array = type { i8, [3 x i8], i32, ptr, ptr, ptr, i32, i32, ptr, ptr, ptr, ptr, i32, i32, i32, i32, ptr, ptr, ptr, ptr, ptr, i32, i32, ptr, ptr, ptr, i32, i32, i32, i32, ptr, ptr, [6 x ptr] }
%struct._zend_op = type { ptr, %union._znode_op, %union._znode_op, %union._znode_op, i32, i32, i8, i8, i8, i8 }
%union._znode_op = type { i32 }
%struct._zend_array = type { %struct._zend_refcounted_h, %union.anon.4, i32, %union.anon.6, i32, i32, i32, i32, i64, ptr }
%struct._zend_refcounted_h = type { i32, %union.anon.3 }
%union.anon.3 = type { i32 }
%union.anon.4 = type { i32 }
%union.anon.6 = type { ptr }
%struct.zend_get_gc_buffer = type { ptr, ptr, ptr }
%struct._zend_call_stack = type { ptr, i64 }
%struct._php_ps_globals = type { ptr, ptr, ptr, ptr, ptr, i64, ptr, ptr, ptr, i8, i8, ptr, ptr, ptr, i32, ptr, i32, i32, %struct._php_random_status_state_pcgoneseq128xslrr64, %struct._php_random_algo_with_state, i64, i64, i64, i64, %struct.anon.8, ptr, i8, i8, i8, i8, i8, i8, i8, i8, ptr, %struct._zval_struct, i64, i64, ptr, ptr, ptr, i64, double, i8, i8, i8, i8, i8, i8, ptr }
%struct._php_random_status_state_pcgoneseq128xslrr64 = type { i128 }
%struct._php_random_algo_with_state = type { ptr, ptr }
%struct.anon.8 = type { %struct._zval_struct, %struct._zval_struct, %struct._zval_struct, %struct._zval_struct, %struct._zval_struct, %struct._zval_struct, %struct._zval_struct, %struct._zval_struct, %struct._zval_struct }
%struct._zend_execute_data = type { ptr, ptr, ptr, ptr, %struct._zval_struct, ptr, ptr, ptr, ptr }
%struct.ps_module_struct = type { ptr, ptr, ptr, ptr, ptr, ptr, ptr, ptr, ptr, ptr }

@executor_globals = external global %struct._zend_executor_globals, align 8
@ps_globals = external global %struct._php_ps_globals, align 16
@.str.1 = private unnamed_addr constant [22 x i8] c"Session is not active\00", align 1
@.str.2 = private unnamed_addr constant [36 x i8] c"Cannot call default session handler\00", align 1
@.str.4 = private unnamed_addr constant [35 x i8] c"Parent session handler is not open\00", align 1
@.str.7 = private unnamed_addr constant [2 x i8] c"l\00", align 1

; Function Attrs: nounwind uwtable
define hidden void @zim_SessionHandler_gc(ptr noundef %0, ptr noundef %1) #0 {
  %3 = alloca ptr, align 8
  %4 = alloca ptr, align 8
  %5 = alloca i64, align 8
  %6 = alloca i64, align 8
  %7 = alloca ptr, align 8
  store ptr %0, ptr %3, align 8
  store ptr %1, ptr %4, align 8
  store i64 -1, ptr %6, align 8
  %8 = load ptr, ptr %3, align 8
  %9 = getelementptr inbounds %struct._zend_execute_data, ptr %8, i32 0, i32 4
  %10 = getelementptr inbounds %struct._zval_struct, ptr %9, i32 0, i32 2
  %11 = load i32, ptr %10, align 4
  %12 = call i32 (i32, ptr, ...) @zend_parse_parameters(i32 noundef %11, ptr noundef @.str.7, ptr noundef %5)
  %13 = icmp eq i32 %12, -1
  br i1 %13, label %14, label %19

14:                                               ; preds = %2
  br label %15

15:                                               ; preds = %14
  %16 = load ptr, ptr getelementptr inbounds (%struct._zend_executor_globals, ptr @executor_globals, i32 0, i32 50), align 8
  %17 = icmp ne ptr %16, null
  call void @llvm.assume(i1 %17)
  br label %69

18:                                               ; No predecessors!
  br label %19

19:                                               ; preds = %18, %2
  %20 = load i32, ptr getelementptr inbounds (%struct._php_ps_globals, ptr @ps_globals, i32 0, i32 14), align 8
  %21 = icmp ne i32 %20, 2
  br i1 %21, label %22, label %27

22:                                               ; preds = %19
  call void (ptr, ptr, ...) @zend_throw_error(ptr noundef null, ptr noundef @.str.1)
  br label %23

23:                                               ; preds = %22
  %24 = load ptr, ptr getelementptr inbounds (%struct._zend_executor_globals, ptr @executor_globals, i32 0, i32 50), align 8
  %25 = icmp ne ptr %24, null
  call void @llvm.assume(i1 %25)
  br label %69

26:                                               ; No predecessors!
  br label %27

27:                                               ; preds = %26, %19
  %28 = load ptr, ptr getelementptr inbounds (%struct._php_ps_globals, ptr @ps_globals, i32 0, i32 12), align 8
  %29 = icmp eq ptr %28, null
  br i1 %29, label %30, label %35

30:                                               ; preds = %27
  call void (ptr, ptr, ...) @zend_throw_error(ptr noundef null, ptr noundef @.str.2)
  br label %31

31:                                               ; preds = %30
  %32 = load ptr, ptr getelementptr inbounds (%struct._zend_executor_globals, ptr @executor_globals, i32 0, i32 50), align 8
  %33 = icmp ne ptr %32, null
  call void @llvm.assume(i1 %33)
  br label %69

34:                                               ; No predecessors!
  br label %35

35:                                               ; preds = %34, %27
  %36 = load i8, ptr getelementptr inbounds (%struct._php_ps_globals, ptr @ps_globals, i32 0, i32 27), align 1
  %37 = trunc i8 %36 to i1
  br i1 %37, label %45, label %38

38:                                               ; preds = %35
  call void (ptr, i32, ptr, ...) @php_error_docref(ptr noundef null, i32 noundef 2, ptr noundef @.str.4)
  br label %39

39:                                               ; preds = %38
  br label %40

40:                                               ; preds = %39
  %41 = load ptr, ptr %4, align 8
  %42 = getelementptr inbounds %struct._zval_struct, ptr %41, i32 0, i32 1
  store i32 2, ptr %42, align 8
  br label %43

43:                                               ; preds = %40
  br label %69

44:                                               ; No predecessors!
  br label %45

45:                                               ; preds = %44, %35
  %46 = load ptr, ptr getelementptr inbounds (%struct._php_ps_globals, ptr @ps_globals, i32 0, i32 12), align 8
  %47 = getelementptr inbounds %struct.ps_module_struct, ptr %46, i32 0, i32 6
  %48 = load ptr, ptr %47, align 8
  %49 = load i64, ptr %5, align 8
  %50 = call i64 %48(ptr noundef getelementptr inbounds (%struct._php_ps_globals, ptr @ps_globals, i32 0, i32 13), i64 noundef %49, ptr noundef %6)
  %51 = icmp eq i64 %50, -1
  br i1 %51, label %52, label %59

52:                                               ; preds = %45
  br label %53

53:                                               ; preds = %52
  br label %54

54:                                               ; preds = %53
  %55 = load ptr, ptr %4, align 8
  %56 = getelementptr inbounds %struct._zval_struct, ptr %55, i32 0, i32 1
  store i32 2, ptr %56, align 8
  br label %57

57:                                               ; preds = %54
  br label %69

58:                                               ; No predecessors!
  br label %59

59:                                               ; preds = %58, %45
  br label %60

60:                                               ; preds = %59
  br label %61

61:                                               ; preds = %60
  %62 = load ptr, ptr %4, align 8
  store ptr %62, ptr %7, align 8
  %63 = load i64, ptr %6, align 8
  %64 = load ptr, ptr %7, align 8
  %65 = getelementptr inbounds %struct._zval_struct, ptr %64, i32 0, i32 0
  store i64 %63, ptr %65, align 8
  %66 = load ptr, ptr %7, align 8
  %67 = getelementptr inbounds %struct._zval_struct, ptr %66, i32 0, i32 1
  store i32 4, ptr %67, align 8
  br label %68

68:                                               ; preds = %61
  br label %69

69:                                               ; preds = %68, %57, %43, %31, %23, %15
  ret void
}